target datalayout = "e-m:e-p270:32:32-p271:32:32-p272:64:64-i64:64-i128:128-f80:128-n8:16:32:64-S128"
target triple = "x86_64-pc-linux-gnu"

%struct.jpeg_decompress_struct = type { ptr, ptr, ptr, ptr, i32, i32, ptr, i32, i32, i32, i32, i32, i32, i32, double, i32, i32, i32, i32, i32, i32, i32, i32, i32, i32, i32, i32, i32, i32, i32, i32, i32, i32, ptr, i32, i32, i32, i32, i32, ptr, [4 x ptr], [4 x ptr], [4 x ptr], i32, ptr, i32, i32, [16 x i8], [16 x i8], [16 x i8], i32, i32, i8, i8, i8, i16, i16, i32, i8, i32, ptr, i32, i32, i32, i32, ptr, i32, [4 x ptr], i32, i32, i32, [10 x i32], i32, i32, i32, i32, i32, ptr, ptr, ptr, ptr, ptr, ptr, ptr, ptr, ptr, ptr, ptr }
%struct.jpeg_source_mgr = type { ptr, i64, ptr, ptr, ptr, ptr, ptr }
%struct.jpeg_error_mgr = type { ptr, ptr, ptr, ptr, ptr, i32, %union.anon, i32, i64, ptr, i32, ptr, i32, i32 }
%union.anon = type { [8 x i32], [48 x i8] }

@fill_mem_input_buffer.mybuffer = internal constant [4 x i8] c"\FF\D9\00\00", align 1

; Function Attrs: nounwind uwtable
define internal i32 @fill_mem_input_buffer(ptr noundef %0) #0 {
  %2 = alloca ptr, align 8
  store ptr %0, ptr %2, align 8, !tbaa !3
  %3 = load ptr, ptr %2, align 8, !tbaa !3
  %4 = getelementptr inbounds nuw %struct.jpeg_decompress_struct, ptr %3, i32 0, i32 0
  %5 = load ptr, ptr %4, align 8, !tbaa !43
  %6 = getelementptr inbounds nuw %struct.jpeg_error_mgr, ptr %5, i32 0, i32 5
  store i32 120, ptr %6, align 8, !tbaa !44
  %7 = load ptr, ptr %2, align 8, !tbaa !3
  %8 = getelementptr inbounds nuw %struct.jpeg_decompress_struct, ptr %7, i32 0, i32 0
  %9 = load ptr, ptr %8, align 8, !tbaa !43
  %10 = getelementptr inbounds nuw %struct.jpeg_error_mgr, ptr %9, i32 0, i32 1
  %11 = load ptr, ptr %10, align 8, !tbaa !57
  %12 = load ptr, ptr %2, align 8, !tbaa !3
  call void %11(ptr noundef %12, i32 noundef -1)
  %13 = load ptr, ptr %2, align 8, !tbaa !3
  %14 = getelementptr inbounds nuw %struct.jpeg_decompress_struct, ptr %13, i32 0, i32 6
  %15 = load ptr, ptr %14, align 8, !tbaa !10
  %16 = getelementptr inbounds nuw %struct.jpeg_source_mgr, ptr %15, i32 0, i32 0
  store ptr @fill_mem_input_buffer.mybuffer, ptr %16, align 8, !tbaa !64
  %17 = load ptr, ptr %2, align 8, !tbaa !3
  %18 = getelementptr inbounds nuw %struct.jpeg_decompress_struct, ptr %17, i32 0, i32 6
  %19 = load ptr, ptr %18, align 8, !tbaa !10
  %20 = getelementptr inbounds nuw %struct.jpeg_source_mgr, ptr %19, i32 0, i32 1
  store i64 2, ptr %20, align 8, !tbaa !60
  ret i32 1
}