; Function Attrs: nounwind uwtable
define internal noundef i32 @fill_mem_input_buffer(ptr noundef %0) #0 {
  %2 = load ptr, ptr %0, align 8, !tbaa !39
  %3 = getelementptr inbounds nuw i8, ptr %2, i64 40
  store i32 120, ptr %3, align 8, !tbaa !40
  %4 = getelementptr inbounds nuw i8, ptr %2, i64 8
  %5 = load ptr, ptr %4, align 8, !tbaa !50
  tail call void %5(ptr noundef nonnull %0, i32 noundef -1) #6
  %6 = getelementptr inbounds nuw i8, ptr %0, i64 40
  %7 = load ptr, ptr %6, align 8, !tbaa !3
  store ptr @fill_mem_input_buffer.mybuffer, ptr %7, align 8, !tbaa !58
  %8 = getelementptr inbounds nuw i8, ptr %7, i64 8
  store i64 2, ptr %8, align 8, !tbaa !54
  ret i32 1
}